target datalayout = "e-m:e-p270:32:32-p271:32:32-p272:64:64-i64:64-i128:128-f80:128-n8:16:32:64-S128"
target triple = "x86_64-unknown-linux-gnu"

%"class.std::set.0" = type { %"class.std::_Rb_tree.1" }
%"class.std::_Rb_tree.1" = type { %"struct.std::_Rb_tree<QuantLib::Observer *, QuantLib::Observer *, std::_Identity<QuantLib::Observer *>, std::less<QuantLib::Observer *>>::_Rb_tree_impl" }
%"struct.std::_Rb_tree<QuantLib::Observer *, QuantLib::Observer *, std::_Identity<QuantLib::Observer *>, std::less<QuantLib::Observer *>>::_Rb_tree_impl" = type { [8 x i8], %"struct.std::_Rb_tree_header" }
%"struct.std::_Rb_tree_header" = type { %"struct.std::_Rb_tree_node_base", i64 }
%"struct.std::_Rb_tree_node_base" = type { i32, ptr, ptr, ptr }
%"class.std::set" = type { %"class.std::_Rb_tree" }
%"class.std::_Rb_tree" = type { %"struct.std::_Rb_tree<boost::shared_ptr<QuantLib::Observable>, boost::shared_ptr<QuantLib::Observable>, std::_Identity<boost::shared_ptr<QuantLib::Observable>>, std::less<boost::shared_ptr<QuantLib::Observable>>>::_Rb_tree_impl" }
%"struct.std::_Rb_tree<boost::shared_ptr<QuantLib::Observable>, boost::shared_ptr<QuantLib::Observable>, std::_Identity<boost::shared_ptr<QuantLib::Observable>>, std::less<boost::shared_ptr<QuantLib::Observable>>>::_Rb_tree_impl" = type { [8 x i8], %"struct.std::_Rb_tree_header" }
%"class.boost::detail::shared_count" = type { ptr }
%"class.QuantLib::Observable" = type { ptr, %"class.std::set.0" }
%"class.QuantLib::AnalyticHolderExtensibleOptionEngine" = type { %"class.QuantLib::HolderExtensibleOption::engine", %"class.boost::shared_ptr.23" }
%"class.QuantLib::HolderExtensibleOption::engine" = type { %"class.QuantLib::GenericEngine" }
%"class.QuantLib::GenericEngine" = type { %"class.QuantLib::PricingEngine", %"class.QuantLib::Observer", %"class.QuantLib::HolderExtensibleOption::arguments", %"class.QuantLib::OneAssetOption::results" }
%"class.QuantLib::PricingEngine" = type { %"class.QuantLib::Observable" }
%"class.QuantLib::Observer" = type { ptr, %"class.std::set" }
%"class.QuantLib::HolderExtensibleOption::arguments" = type { %"class.QuantLib::Option::arguments", double, %"class.QuantLib::Date", double }
%"class.QuantLib::Option::arguments" = type { %"class.QuantLib::PricingEngine::arguments", %"class.boost::shared_ptr.16", %"class.boost::shared_ptr.17" }
%"class.QuantLib::PricingEngine::arguments" = type { ptr }
%"class.boost::shared_ptr.16" = type { ptr, %"class.boost::detail::shared_count" }
%"class.boost::shared_ptr.17" = type { ptr, %"class.boost::detail::shared_count" }
%"class.QuantLib::Date" = type { i64 }
%"class.QuantLib::OneAssetOption::results" = type { %"class.QuantLib::Instrument::results", %"class.QuantLib::Greeks", %"class.QuantLib::MoreGreeks" }
%"class.QuantLib::Instrument::results" = type { %"class.QuantLib::PricingEngine::results", double, double, %"class.QuantLib::Date", %"class.std::map" }
%"class.QuantLib::PricingEngine::results" = type { ptr }
%"class.std::map" = type { %"class.std::_Rb_tree.10" }
%"class.std::_Rb_tree.10" = type { %"struct.std::_Rb_tree<std::__cxx11::basic_string<char>, std::pair<const std::__cxx11::basic_string<char>, boost::any>, std::_Select1st<std::pair<const std::__cxx11::basic_string<char>, boost::any>>, std::less<std::__cxx11::basic_string<char>>>::_Rb_tree_impl" }
%"struct.std::_Rb_tree<std::__cxx11::basic_string<char>, std::pair<const std::__cxx11::basic_string<char>, boost::any>, std::_Select1st<std::pair<const std::__cxx11::basic_string<char>, boost::any>>, std::less<std::__cxx11::basic_string<char>>>::_Rb_tree_impl" = type { [8 x i8], %"struct.std::_Rb_tree_header" }
%"class.QuantLib::Greeks" = type { %"class.QuantLib::PricingEngine::results", double, double, double, double, double, double }
%"class.QuantLib::MoreGreeks" = type { %"class.QuantLib::PricingEngine::results", double, double, double, double, double }
%"class.boost::shared_ptr.23" = type { ptr, %"class.boost::detail::shared_count" }

@.str.14 = private unnamed_addr constant [8 x i8] c"px != 0\00", align 1
@.str.15 = private unnamed_addr constant [102 x i8] c"generated/home/dtcxzyw/WorkSpace/SDK/vcpkg/installed/x64-linux/include/boost/smart_ptr/shared_ptr.hpp\00", align 1
@__PRETTY_FUNCTION__._ZNK5boost10shared_ptrIN8QuantLib8ExerciseEEptEv = private unnamed_addr constant [133 x i8] c"typename boost::detail::sp_member_access<T>::type boost::shared_ptr<QuantLib::Exercise>::operator->() const [T = QuantLib::Exercise]\00", align 1

; Function Attrs: mustprogress uwtable
define linkonce_odr noundef ptr @_ZNK5boost10shared_ptrIN8QuantLib8ExerciseEEptEv(ptr noundef nonnull align 8 dereferenceable(16) %this) #2 comdat align 2 {
entry:
  %this.addr = alloca ptr, align 8
  store ptr %this, ptr %this.addr, align 8, !tbaa !3
  %this1 = load ptr, ptr %this.addr, align 8
  %px = getelementptr inbounds nuw %"class.boost::shared_ptr.17", ptr %this1, i32 0, i32 0
  %0 = load ptr, ptr %px, align 8, !tbaa !81
  %cmp = icmp ne ptr %0, null
  %lnot = xor i1 %cmp, true
  %lnot2 = xor i1 %lnot, true
  %conv = zext i1 %lnot2 to i64
  %expval = call i64 @llvm.expect.i64(i64 %conv, i64 1)
  %tobool = icmp ne i64 %expval, 0
  br i1 %tobool, label %cond.true, label %cond.false

cond.true:                                        ; preds = %entry
  br label %cond.end

cond.false:                                       ; preds = %entry
  call void @_ZN5boost16assertion_failedEPKcS1_S1_l(ptr noundef @.str.14, ptr noundef @__PRETTY_FUNCTION__._ZNK5boost10shared_ptrIN8QuantLib8ExerciseEEptEv, ptr noundef @.str.15, i64 noundef 784)
  br label %cond.end

cond.end:                                         ; preds = %cond.false, %cond.true
  %px3 = getelementptr inbounds nuw %"class.boost::shared_ptr.17", ptr %this1, i32 0, i32 0
  %1 = load ptr, ptr %px3, align 8, !tbaa !81
  ret ptr %1
}

; Function Attrs: inlinehint mustprogress nounwind uwtable
define linkonce_odr noundef double @_ZSt3powIdiEN9__gnu_cxx9__promoteIDTplcvNS1_IT_Xsr3std12__is_integerIS2_EE7__valueEE6__typeELi0EcvNS1_IT0_Xsr3std12__is_integerIS5_EE7__valueEE6__typeELi0EEXsr3std12__is_integerIS8_EE7__valueEE6__typeES2_S5_(double noundef %__x, i32 noundef %__y) #5 comdat {
entry:
  %__x.addr = alloca double, align 8
  %__y.addr = alloca i32, align 4
  store double %__x, ptr %__x.addr, align 8, !tbaa !18
  store i32 %__y, ptr %__y.addr, align 4, !tbaa !54
  %0 = load double, ptr %__x.addr, align 8, !tbaa !18
  %1 = load i32, ptr %__y.addr, align 4, !tbaa !54
  %conv = sitofp i32 %1 to double
  %call = call double @pow(double noundef %0, double noundef %conv) #13, !tbaa !54
  ret double %call
}

; Function Attrs: mustprogress uwtable
define noundef double @_ZNK8QuantLib36AnalyticHolderExtensibleOptionEngine15firstExpiryTimeEv(ptr noundef nonnull align 8 dereferenceable(376) %this) #2 align 2 {
entry:
  %this.addr = alloca ptr, align 8
  %ref.tmp = alloca %"class.QuantLib::Date", align 8
  store ptr %this, ptr %this.addr, align 8, !tbaa !3
  %this1 = load ptr, ptr %this.addr, align 8
  %process_ = getelementptr inbounds nuw %"class.QuantLib::AnalyticHolderExtensibleOptionEngine", ptr %this1, i32 0, i32 1
  %call = call noundef ptr @_ZNK5boost10shared_ptrIN8QuantLib30GeneralizedBlackScholesProcessEEptEv(ptr noundef nonnull align 8 dereferenceable(16) %process_)
  call void @llvm.lifetime.start.p0(i64 8, ptr %ref.tmp) #13
  %arguments_ = getelementptr inbounds nuw %"class.QuantLib::GenericEngine", ptr %this1, i32 0, i32 2
  %exercise = getelementptr inbounds nuw %"class.QuantLib::Option::arguments", ptr %arguments_, i32 0, i32 2
  %call2 = call noundef ptr @_ZNK5boost10shared_ptrIN8QuantLib8ExerciseEEptEv(ptr noundef nonnull align 8 dereferenceable(16) %exercise)
  %call3 = call i64 @_ZNK8QuantLib8Exercise8lastDateEv(ptr noundef nonnull align 8 dereferenceable(36) %call2)
  %coerce.dive = getelementptr inbounds nuw %"class.QuantLib::Date", ptr %ref.tmp, i32 0, i32 0
  store i64 %call3, ptr %coerce.dive, align 8
  %vtable = load ptr, ptr %call, align 8, !tbaa !12
  %vfn = getelementptr inbounds ptr, ptr %vtable, i64 14
  %0 = load ptr, ptr %vfn, align 8
  %call4 = call noundef double %0(ptr noundef nonnull align 8 dereferenceable(250) %call, ptr noundef nonnull align 8 dereferenceable(8) %ref.tmp)
  call void @llvm.lifetime.end.p0(i64 8, ptr %ref.tmp) #13
  ret double %call4
}

; Function Attrs: mustprogress uwtable
define linkonce_odr noundef ptr @_ZNK5boost10shared_ptrIN8QuantLib30GeneralizedBlackScholesProcessEEptEv(ptr noundef nonnull align 8 dereferenceable(16) %this) #2 comdat align 2 {
entry:
  %this.addr = alloca ptr, align 8
  store ptr %this, ptr %this.addr, align 8, !tbaa !3
  %this1 = load ptr, ptr %this.addr, align 8
  %px = getelementptr inbounds nuw %"class.boost::shared_ptr.23", ptr %this1, i32 0, i32 0
  %0 = load ptr, ptr %px, align 8, !tbaa !14
  %cmp = icmp ne ptr %0, null
  %lnot = xor i1 %cmp, true
  %lnot2 = xor i1 %lnot, true
  %conv = zext i1 %lnot2 to i64
  %expval = call i64 @llvm.expect.i64(i64 %conv, i64 1)
  %tobool = icmp ne i64 %expval, 0
  br i1 %tobool, label %cond.true, label %cond.false

cond.true:                                        ; preds = %entry
  br label %cond.end

cond.false:                                       ; preds = %entry
  call void @_ZN5boost16assertion_failedEPKcS1_S1_l(ptr noundef @.str.14, ptr noundef @__PRETTY_FUNCTION__._ZNK5boost10shared_ptrIN8QuantLib30GeneralizedBlackScholesProcessEEptEv, ptr noundef @.str.15, i64 noundef 784)
  br label %cond.end

cond.end:                                         ; preds = %cond.false, %cond.true
  %px3 = getelementptr inbounds nuw %"class.boost::shared_ptr.23", ptr %this1, i32 0, i32 0
  %1 = load ptr, ptr %px3, align 8, !tbaa !14
  ret ptr %1
}

; Function Attrs: mustprogress uwtable
define noundef double @_ZNK8QuantLib36AnalyticHolderExtensibleOptionEngine2z2Ev(ptr noundef nonnull align 8 dereferenceable(376) %this) #2 align 2 {
entry:
  %this.addr = alloca ptr, align 8
  %S = alloca double, align 8
  %X1 = alloca double, align 8
  %b = alloca double, align 8
  %vol = alloca double, align 8
  %t1 = alloca double, align 8
  store ptr %this, ptr %this.addr, align 8, !tbaa !3
  %this1 = load ptr, ptr %this.addr, align 8
  call void @llvm.lifetime.start.p0(i64 8, ptr %S) #13
  %process_ = getelementptr inbounds nuw %"class.QuantLib::AnalyticHolderExtensibleOptionEngine", ptr %this1, i32 0, i32 1
  %call = call noundef ptr @_ZNK5boost10shared_ptrIN8QuantLib30GeneralizedBlackScholesProcessEEptEv(ptr noundef nonnull align 8 dereferenceable(16) %process_)
  %vtable = load ptr, ptr %call, align 8, !tbaa !12
  %vfn = getelementptr inbounds ptr, ptr %vtable, i64 15
  %0 = load ptr, ptr %vfn, align 8
  %call2 = call noundef double %0(ptr noundef nonnull align 8 dereferenceable(250) %call)
  store double %call2, ptr %S, align 8, !tbaa !18
  call void @llvm.lifetime.start.p0(i64 8, ptr %X1) #13
  %call3 = call noundef double @_ZNK8QuantLib36AnalyticHolderExtensibleOptionEngine6strikeEv(ptr noundef nonnull align 8 dereferenceable(376) %this1)
  store double %call3, ptr %X1, align 8, !tbaa !18
  call void @llvm.lifetime.start.p0(i64 8, ptr %b) #13
  %call4 = call noundef double @_ZNK8QuantLib36AnalyticHolderExtensibleOptionEngine12riskFreeRateEv(ptr noundef nonnull align 8 dereferenceable(376) %this1)
  %call5 = call noundef double @_ZNK8QuantLib36AnalyticHolderExtensibleOptionEngine13dividendYieldEv(ptr noundef nonnull align 8 dereferenceable(376) %this1)
  %sub = fsub double %call4, %call5
  store double %sub, ptr %b, align 8, !tbaa !18
  call void @llvm.lifetime.start.p0(i64 8, ptr %vol) #13
  %call6 = call noundef double @_ZNK8QuantLib36AnalyticHolderExtensibleOptionEngine10volatilityEv(ptr noundef nonnull align 8 dereferenceable(376) %this1)
  store double %call6, ptr %vol, align 8, !tbaa !18
  call void @llvm.lifetime.start.p0(i64 8, ptr %t1) #13
  %call7 = call noundef double @_ZNK8QuantLib36AnalyticHolderExtensibleOptionEngine15firstExpiryTimeEv(ptr noundef nonnull align 8 dereferenceable(376) %this1)
  store double %call7, ptr %t1, align 8, !tbaa !18
  %1 = load double, ptr %S, align 8, !tbaa !18
  %2 = load double, ptr %X1, align 8, !tbaa !18
  %div = fdiv double %1, %2
  %call8 = call double @log(double noundef %div) #13, !tbaa !54
  %3 = load double, ptr %b, align 8, !tbaa !18
  %4 = load double, ptr %vol, align 8, !tbaa !18
  %call9 = call noundef double @_ZSt3powIdiEN9__gnu_cxx9__promoteIDTplcvNS1_IT_Xsr3std12__is_integerIS2_EE7__valueEE6__typeELi0EcvNS1_IT0_Xsr3std12__is_integerIS5_EE7__valueEE6__typeELi0EEXsr3std12__is_integerIS8_EE7__valueEE6__typeES2_S5_(double noundef %4, i32 noundef 2)
  %div10 = fdiv double %call9, 2.000000e+00
  %add = fadd double %3, %div10
  %5 = load double, ptr %t1, align 8, !tbaa !18
  %6 = call double @llvm.fmuladd.f64(double %add, double %5, double %call8)
  %7 = load double, ptr %vol, align 8, !tbaa !18
  %8 = load double, ptr %t1, align 8, !tbaa !18
  %call11 = call double @sqrt(double noundef %8) #13, !tbaa !54
  %mul = fmul double %7, %call11
  %div12 = fdiv double %6, %mul
  call void @llvm.lifetime.end.p0(i64 8, ptr %t1) #13
  call void @llvm.lifetime.end.p0(i64 8, ptr %vol) #13
  call void @llvm.lifetime.end.p0(i64 8, ptr %b) #13
  call void @llvm.lifetime.end.p0(i64 8, ptr %X1) #13
  call void @llvm.lifetime.end.p0(i64 8, ptr %S) #13
  ret double %div12
}